; Function Attrs: nounwind uwtable
define range(i32 0, 2) i32 @BIO_new_bio_pair(ptr noundef writeonly captures(none) initializes((0, 8)) %0, i64 noundef %1, ptr noundef writeonly captures(none) initializes((0, 8)) %2, i64 noundef %3) local_unnamed_addr #1 {
  %5 = tail call ptr @BIO_new(ptr noundef nonnull @methods_biop) #8
  %6 = icmp eq ptr %5, null
  br i1 %6, label %.thread, label %7

7:                                                ; preds = %4
  %8 = tail call ptr @BIO_new(ptr noundef nonnull @methods_biop) #8
  %9 = icmp eq ptr %8, null
  br i1 %9, label %.thread, label %10

10:                                               ; preds = %7
  %.not = icmp eq i64 %1, 0
  br i1 %.not, label %13, label %11

11:                                               ; preds = %10
  %12 = tail call i64 @BIO_ctrl(ptr noundef nonnull %5, i32 noundef 136, i64 noundef %1, ptr noundef null) #8
  %sext.mask = and i64 %12, 4294967295
  %.not27 = icmp eq i64 %sext.mask, 0
  br i1 %.not27, label %.thread, label %13

13:                                               ; preds = %11, %10
  %.not28 = icmp eq i64 %3, 0
  br i1 %.not28, label %16, label %14

14:                                               ; preds = %13
  %15 = tail call i64 @BIO_ctrl(ptr noundef nonnull %8, i32 noundef 136, i64 noundef %3, ptr noundef null) #8
  %sext.mask30 = and i64 %15, 4294967295
  %.not29 = icmp eq i64 %sext.mask30, 0
  br i1 %.not29, label %.thread, label %16

16:                                               ; preds = %13, %14
  %17 = tail call i64 @BIO_ctrl(ptr noundef nonnull %5, i32 noundef 138, i64 noundef 0, ptr noundef nonnull %8) #8
  %sext.mask32 = and i64 %17, 4294967295
  %.not31 = icmp eq i64 %sext.mask32, 0
  br i1 %.not31, label %.thread, label %20

.thread:                                          ; preds = %11, %14, %7, %4, %16
  %.02036 = phi ptr [ %8, %16 ], [ %8, %11 ], [ %8, %14 ], [ null, %7 ], [ null, %4 ]
  %18 = tail call i32 @BIO_free(ptr noundef %5) #8
  %19 = tail call i32 @BIO_free(ptr noundef %.02036) #8
  br label %20

20:                                               ; preds = %.thread, %16
  %.037 = phi i32 [ 0, %.thread ], [ 1, %16 ]
  %.021 = phi ptr [ null, %.thread ], [ %5, %16 ]
  %.1 = phi ptr [ null, %.thread ], [ %8, %16 ]
  store ptr %.021, ptr %0, align 8, !tbaa !3
  store ptr %.1, ptr %2, align 8, !tbaa !3
  ret i32 %.037
}